; Function Attrs: nofree norecurse nosync nounwind memory(readwrite, inaccessiblemem: none) uwtable
define void @Map_MappingEstimateRefsInit(ptr noundef readonly captures(none) %0) local_unnamed_addr #2 {
  %2 = getelementptr inbounds nuw i8, ptr %0, i64 56
  %3 = load ptr, ptr %2, align 8, !tbaa !12
  %4 = getelementptr inbounds nuw i8, ptr %3, i64 8
  %5 = load i32, ptr %4, align 8, !tbaa !26
  %6 = icmp sgt i32 %5, 0
  br i1 %6, label %.lr.ph, label %._crit_edge

.lr.ph:                                           ; preds = %1
  %7 = load ptr, ptr %3, align 8, !tbaa !28
  %wide.trip.count = zext nneg i32 %5 to i64
  br label %8

8:                                                ; preds = %.lr.ph, %8
  %indvars.iv = phi i64 [ 0, %.lr.ph ], [ %indvars.iv.next, %8 ]
  %9 = getelementptr inbounds nuw ptr, ptr %7, i64 %indvars.iv
  %10 = load ptr, ptr %9, align 8, !tbaa !29
  %11 = getelementptr inbounds nuw i8, ptr %10, i64 24
  %12 = load i32, ptr %11, align 8, !tbaa !30
  %13 = sitofp i32 %12 to float
  %14 = getelementptr inbounds nuw i8, ptr %10, i64 44
  %15 = getelementptr inbounds nuw i8, ptr %10, i64 52
  store float %13, ptr %15, align 4, !tbaa !10
  %16 = getelementptr inbounds nuw i8, ptr %10, i64 48
  store float %13, ptr %16, align 4, !tbaa !10
  store float %13, ptr %14, align 4, !tbaa !10
  %indvars.iv.next = add nuw nsw i64 %indvars.iv, 1
  %exitcond.not = icmp eq i64 %indvars.iv.next, %wide.trip.count
  br i1 %exitcond.not, label %._crit_edge, label %8, !llvm.loop !33

._crit_edge:                                      ; preds = %8, %1
  ret void
}